target datalayout = "e-m:e-p270:32:32-p271:32:32-p272:64:64-i64:64-i128:128-f80:128-n8:16:32:64-S128"
target triple = "x86_64-pc-linux-gnu"

@.str.9 = private unnamed_addr constant [17 x i8] c"%lu:%s:%s:%d:%s\0A\00", align 1
@.str.10 = private unnamed_addr constant [1 x i8] zeroinitializer, align 1

; Function Attrs: nounwind uwtable
define hidden i32 @ERR_get_error_line_data(ptr noundef %0, ptr noundef %1, ptr noundef %2, ptr noundef %3) #0 {
  %5 = alloca ptr, align 8
  %6 = alloca ptr, align 8
  %7 = alloca ptr, align 8
  %8 = alloca ptr, align 8
  store ptr %0, ptr %5, align 8, !tbaa !10
  store ptr %1, ptr %6, align 8, !tbaa !13
  store ptr %2, ptr %7, align 8, !tbaa !10
  store ptr %3, ptr %8, align 8, !tbaa !13
  %9 = load ptr, ptr %5, align 8, !tbaa !10
  %10 = load ptr, ptr %6, align 8, !tbaa !13
  %11 = load ptr, ptr %7, align 8, !tbaa !10
  %12 = load ptr, ptr %8, align 8, !tbaa !13
  %13 = call i32 @get_error_values(i32 noundef 1, i32 noundef 0, ptr noundef %9, ptr noundef %10, ptr noundef %11, ptr noundef %12)
  ret i32 %13
}

; Function Attrs: nounwind uwtable
define internal ptr @err_get_state() #0 {
  %1 = alloca ptr, align 8
  %2 = alloca ptr, align 8
  %3 = alloca i32, align 4
  call void @llvm.lifetime.start.p0(i64 8, ptr %2) #12
  %4 = call ptr @CRYPTO_get_thread_local(i32 noundef 0)
  store ptr %4, ptr %2, align 8, !tbaa !15
  %5 = load ptr, ptr %2, align 8, !tbaa !15
  %6 = icmp eq ptr %5, null
  br i1 %6, label %7, label %19

7:                                                ; preds = %0
  %8 = call noalias ptr @malloc(i64 noundef 400) #13
  store ptr %8, ptr %2, align 8, !tbaa !15
  %9 = load ptr, ptr %2, align 8, !tbaa !15
  %10 = icmp eq ptr %9, null
  br i1 %10, label %11, label %12

11:                                               ; preds = %7
  store ptr null, ptr %1, align 8
  store i32 1, ptr %3, align 4
  br label %21

12:                                               ; preds = %7
  %13 = load ptr, ptr %2, align 8, !tbaa !15
  call void @llvm.memset.p0.i64(ptr align 8 %13, i8 0, i64 400, i1 false)
  %14 = load ptr, ptr %2, align 8, !tbaa !15
  %15 = call i32 @CRYPTO_set_thread_local(i32 noundef 0, ptr noundef %14, ptr noundef @err_state_free)
  %16 = icmp ne i32 %15, 0
  br i1 %16, label %18, label %17

17:                                               ; preds = %12
  store ptr null, ptr %1, align 8
  store i32 1, ptr %3, align 4
  br label %21

18:                                               ; preds = %12
  br label %19

19:                                               ; preds = %18, %0
  %20 = load ptr, ptr %2, align 8, !tbaa !15
  store ptr %20, ptr %1, align 8
  store i32 1, ptr %3, align 4
  br label %21

21:                                               ; preds = %19, %17, %11
  call void @llvm.lifetime.end.p0(i64 8, ptr %2) #12
  %22 = load ptr, ptr %1, align 8
  ret ptr %22
}

; Function Attrs: nounwind uwtable
define hidden void @ERR_print_errors_cb(ptr noundef %0, ptr noundef %1) #0 {
  %3 = alloca ptr, align 8
  %4 = alloca ptr, align 8
  %5 = alloca [256 x i8], align 16
  %6 = alloca [1024 x i8], align 16
  %7 = alloca ptr, align 8
  %8 = alloca ptr, align 8
  %9 = alloca i32, align 4
  %10 = alloca i32, align 4
  %11 = alloca i32, align 4
  %12 = alloca i64, align 8
  store ptr %0, ptr %3, align 8, !tbaa !37
  store ptr %1, ptr %4, align 8, !tbaa !37
  call void @llvm.lifetime.start.p0(i64 256, ptr %5) #12
  call void @llvm.lifetime.start.p0(i64 1024, ptr %6) #12
  call void @llvm.lifetime.start.p0(i64 8, ptr %7) #12
  call void @llvm.lifetime.start.p0(i64 8, ptr %8) #12
  call void @llvm.lifetime.start.p0(i64 4, ptr %9) #12
  call void @llvm.lifetime.start.p0(i64 4, ptr %10) #12
  call void @llvm.lifetime.start.p0(i64 4, ptr %11) #12
  call void @llvm.lifetime.start.p0(i64 8, ptr %12) #12
  %13 = call ptr @err_get_state()
  %14 = ptrtoint ptr %13 to i64
  store i64 %14, ptr %12, align 8, !tbaa !34
  br label %15

15:                                               ; preds = %45, %2
  %16 = call i32 @ERR_get_error_line_data(ptr noundef %7, ptr noundef %9, ptr noundef %8, ptr noundef %10)
  store i32 %16, ptr %11, align 4, !tbaa !6
  %17 = load i32, ptr %11, align 4, !tbaa !6
  %18 = icmp eq i32 %17, 0
  br i1 %18, label %19, label %20

19:                                               ; preds = %15
  br label %46

20:                                               ; preds = %15
  %21 = load i32, ptr %11, align 4, !tbaa !6
  %22 = getelementptr inbounds [256 x i8], ptr %5, i64 0, i64 0
  call void @ERR_error_string_n(i32 noundef %21, ptr noundef %22, i64 noundef 256)
  %23 = getelementptr inbounds [1024 x i8], ptr %6, i64 0, i64 0
  %24 = load i64, ptr %12, align 8, !tbaa !34
  %25 = getelementptr inbounds [256 x i8], ptr %5, i64 0, i64 0
  %26 = load ptr, ptr %7, align 8, !tbaa !27
  %27 = load i32, ptr %9, align 4, !tbaa !6
  %28 = load i32, ptr %10, align 4, !tbaa !6
  %29 = and i32 %28, 1
  %30 = icmp ne i32 %29, 0
  br i1 %30, label %31, label %33

31:                                               ; preds = %20
  %32 = load ptr, ptr %8, align 8, !tbaa !27
  br label %34

33:                                               ; preds = %20
  br label %34

34:                                               ; preds = %33, %31
  %35 = phi ptr [ %32, %31 ], [ @.str.10, %33 ]
  %36 = call i32 (ptr, i64, ptr, ...) @BIO_snprintf(ptr noundef %23, i64 noundef 1024, ptr noundef @.str.9, i64 noundef %24, ptr noundef %25, ptr noundef %26, i32 noundef %27, ptr noundef %35)
  %37 = load ptr, ptr %3, align 8, !tbaa !37
  %38 = getelementptr inbounds [1024 x i8], ptr %6, i64 0, i64 0
  %39 = getelementptr inbounds [1024 x i8], ptr %6, i64 0, i64 0
  %40 = call i64 @strlen(ptr noundef %39) #15
  %41 = load ptr, ptr %4, align 8, !tbaa !37
  %42 = call i32 %37(ptr noundef %38, i64 noundef %40, ptr noundef %41)
  %43 = icmp sle i32 %42, 0
  br i1 %43, label %44, label %45

44:                                               ; preds = %34
  br label %46

45:                                               ; preds = %34
  br label %15

46:                                               ; preds = %44, %19
  call void @llvm.lifetime.end.p0(i64 8, ptr %12) #12
  call void @llvm.lifetime.end.p0(i64 4, ptr %11) #12
  call void @llvm.lifetime.end.p0(i64 4, ptr %10) #12
  call void @llvm.lifetime.end.p0(i64 4, ptr %9) #12
  call void @llvm.lifetime.end.p0(i64 8, ptr %8) #12
  call void @llvm.lifetime.end.p0(i64 8, ptr %7) #12
  call void @llvm.lifetime.end.p0(i64 1024, ptr %6) #12
  call void @llvm.lifetime.end.p0(i64 256, ptr %5) #12
  ret void
}