; Function Attrs: nounwind uwtable
define hidden void @ERR_print_errors_cb(ptr noundef readonly captures(none) %0, ptr noundef %1) local_unnamed_addr #0 {
  %3 = alloca [256 x i8], align 16
  %4 = alloca [1024 x i8], align 16
  %5 = alloca ptr, align 8
  %6 = alloca ptr, align 8
  %7 = alloca i32, align 4
  %8 = alloca i32, align 4
  call void @llvm.lifetime.start.p0(i64 256, ptr nonnull %3) #17
  call void @llvm.lifetime.start.p0(i64 1024, ptr nonnull %4) #17
  call void @llvm.lifetime.start.p0(i64 8, ptr nonnull %5) #17
  call void @llvm.lifetime.start.p0(i64 8, ptr nonnull %6) #17
  call void @llvm.lifetime.start.p0(i64 4, ptr nonnull %7) #17
  call void @llvm.lifetime.start.p0(i64 4, ptr nonnull %8) #17
  %9 = tail call ptr @CRYPTO_get_thread_local(i32 noundef 0) #17
  %10 = icmp eq ptr %9, null
  br i1 %10, label %11, label %err_get_state.exit

11:                                               ; preds = %2
  %calloc.i = tail call dereferenceable_or_null(400) ptr @calloc(i64 1, i64 400)
  %12 = icmp eq ptr %calloc.i, null
  br i1 %12, label %err_get_state.exit, label %13

13:                                               ; preds = %11
  %14 = tail call i32 @CRYPTO_set_thread_local(i32 noundef 0, ptr noundef nonnull %calloc.i, ptr noundef nonnull @err_state_free) #17
  %.not.i = icmp eq i32 %14, 0
  %spec.select.i = select i1 %.not.i, ptr null, ptr %calloc.i
  br label %err_get_state.exit

err_get_state.exit:                               ; preds = %2, %11, %13
  %.06.i = phi ptr [ null, %11 ], [ %9, %2 ], [ %spec.select.i, %13 ]
  %15 = ptrtoint ptr %.06.i to i64
  br label %16

16:                                               ; preds = %19, %err_get_state.exit
  %17 = call fastcc i32 @get_error_values(i32 noundef 1, i32 noundef 0, ptr noundef nonnull %5, ptr noundef nonnull %7, ptr noundef nonnull %6, ptr noundef nonnull %8)
  %18 = icmp eq i32 %17, 0
  br i1 %18, label %30, label %19

19:                                               ; preds = %16
  call void @ERR_error_string_n(i32 noundef %17, ptr noundef nonnull %3, i64 noundef 256)
  %20 = load ptr, ptr %5, align 8, !tbaa !20
  %21 = load i32, ptr %7, align 4, !tbaa !22
  %22 = load i32, ptr %8, align 4, !tbaa !22
  %23 = and i32 %22, 1
  %.not = icmp eq i32 %23, 0
  %24 = load ptr, ptr %6, align 8
  %25 = select i1 %.not, ptr @.str.10, ptr %24
  %26 = call i32 (ptr, i64, ptr, ...) @BIO_snprintf(ptr noundef nonnull %4, i64 noundef 1024, ptr noundef nonnull @.str.9, i64 noundef %15, ptr noundef nonnull %3, ptr noundef %20, i32 noundef %21, ptr noundef %25) #17
  %27 = call i64 @strlen(ptr noundef nonnull dereferenceable(1) %4) #19
  %28 = call i32 %0(ptr noundef nonnull %4, i64 noundef %27, ptr noundef %1) #17
  %29 = icmp slt i32 %28, 1
  br i1 %29, label %30, label %16

30:                                               ; preds = %19, %16
  call void @llvm.lifetime.end.p0(i64 4, ptr nonnull %8) #17
  call void @llvm.lifetime.end.p0(i64 4, ptr nonnull %7) #17
  call void @llvm.lifetime.end.p0(i64 8, ptr nonnull %6) #17
  call void @llvm.lifetime.end.p0(i64 8, ptr nonnull %5) #17
  call void @llvm.lifetime.end.p0(i64 1024, ptr nonnull %4) #17
  call void @llvm.lifetime.end.p0(i64 256, ptr nonnull %3) #17
  ret void
}